target datalayout = "e-m:e-p270:32:32-p271:32:32-p272:64:64-i64:64-i128:128-f80:128-n8:16:32:64-S128"
target triple = "x86_64-pc-linux-gnu"

%struct.BlockZoneDescriptor = type { i64, i64, i64, i64, i32, i32 }

@optind = external global i32, align 4
@.str.30 = private unnamed_addr constant [78 x i8] c"Parsing error: non-numeric argument, or extraneous/unrecognized suffix -- %s\0A\00", align 1
@.str.31 = private unnamed_addr constant [41 x i8] c"Parsing error: argument too large -- %s\0A\00", align 1
@.str.32 = private unnamed_addr constant [19 x i8] c"Parsing error: %s\0A\00", align 1
@.str.109 = private unnamed_addr constant [40 x i8] c"Number of zones must be less than 2^32\0A\00", align 1
@.str.110 = private unnamed_addr constant [24 x i8] c"zone report failed: %s\0A\00", align 1
@.str.111 = private unnamed_addr constant [70 x i8] c"start: 0x%lx, len 0x%lx, cap 0x%lx, wptr 0x%lx, zcond:%u, [type: %u]\0A\00", align 1

; Function Attrs: inlinehint nounwind sspstrong uwtable
define internal void @g_autoptr_cleanup_generic_gfree(ptr noundef %0) #9 {
  %2 = alloca ptr, align 8
  %3 = alloca ptr, align 8
  store ptr %0, ptr %2, align 8
  call void @llvm.lifetime.start.p0(i64 8, ptr %3) #18
  %4 = load ptr, ptr %2, align 8
  store ptr %4, ptr %3, align 8
  %5 = load ptr, ptr %3, align 8
  %6 = load ptr, ptr %5, align 8
  call void @g_free(ptr noundef %6)
  call void @llvm.lifetime.end.p0(i64 8, ptr %3) #18
  ret void
}

; Function Attrs: inlinehint nounwind sspstrong uwtable
define internal i64 @tosector(i64 noundef %0) #9 {
  %2 = alloca i64, align 8
  store i64 %0, ptr %2, align 8
  %3 = load i64, ptr %2, align 8
  %4 = ashr i64 %3, 9
  ret i64 %4
}

; Function Attrs: nounwind sspstrong uwtable
define internal void @print_cvtnum_err(i64 noundef %0, ptr noundef %1) #0 {
  %3 = alloca i64, align 8
  %4 = alloca ptr, align 8
  store i64 %0, ptr %3, align 8
  store ptr %1, ptr %4, align 8
  %5 = load i64, ptr %3, align 8
  switch i64 %5, label %12 [
    i64 -22, label %6
    i64 -34, label %9
  ]

6:                                                ; preds = %2
  %7 = load ptr, ptr %4, align 8
  %8 = call i32 (i32, ptr, ...) @__printf_chk(i32 noundef 1, ptr noundef @.str.30, ptr noundef %7)
  br label %15

9:                                                ; preds = %2
  %10 = load ptr, ptr %4, align 8
  %11 = call i32 (i32, ptr, ...) @__printf_chk(i32 noundef 1, ptr noundef @.str.31, ptr noundef %10)
  br label %15

12:                                               ; preds = %2
  %13 = load ptr, ptr %4, align 8
  %14 = call i32 (i32, ptr, ...) @__printf_chk(i32 noundef 1, ptr noundef @.str.32, ptr noundef %13)
  br label %15

15:                                               ; preds = %12, %9, %6
  ret void
}

; Function Attrs: nounwind sspstrong uwtable
define internal i64 @cvtnum(ptr noundef %0) #0 {
  %2 = alloca i64, align 8
  %3 = alloca ptr, align 8
  %4 = alloca i32, align 4
  %5 = alloca i64, align 8
  %6 = alloca i32, align 4
  store ptr %0, ptr %3, align 8
  call void @llvm.lifetime.start.p0(i64 4, ptr %4) #18
  store i32 0, ptr %4, align 4, !annotation !4
  call void @llvm.lifetime.start.p0(i64 8, ptr %5) #18
  store i64 0, ptr %5, align 8, !annotation !4
  %7 = load ptr, ptr %3, align 8
  %8 = call i32 @qemu_strtosz(ptr noundef %7, ptr noundef null, ptr noundef %5)
  store i32 %8, ptr %4, align 4
  %9 = load i32, ptr %4, align 4
  %10 = icmp slt i32 %9, 0
  br i1 %10, label %11, label %14

11:                                               ; preds = %1
  %12 = load i32, ptr %4, align 4
  %13 = sext i32 %12 to i64
  store i64 %13, ptr %2, align 8
  store i32 1, ptr %6, align 4
  br label %20

14:                                               ; preds = %1
  %15 = load i64, ptr %5, align 8
  %16 = icmp ugt i64 %15, 9223372036854775807
  br i1 %16, label %17, label %18

17:                                               ; preds = %14
  store i64 -34, ptr %2, align 8
  store i32 1, ptr %6, align 4
  br label %20

18:                                               ; preds = %14
  %19 = load i64, ptr %5, align 8
  store i64 %19, ptr %2, align 8
  store i32 1, ptr %6, align 4
  br label %20

20:                                               ; preds = %18, %17, %11
  call void @llvm.lifetime.end.p0(i64 8, ptr %5) #18
  call void @llvm.lifetime.end.p0(i64 4, ptr %4) #18
  %21 = load i64, ptr %2, align 8
  ret i64 %21
}

; Function Attrs: nounwind sspstrong uwtable
define internal i32 @zone_report_f(ptr noundef %0, i32 noundef %1, ptr noundef %2) #0 {
  %4 = alloca i32, align 4
  %5 = alloca ptr, align 8
  %6 = alloca i32, align 4
  %7 = alloca ptr, align 8
  %8 = alloca i32, align 4
  %9 = alloca i64, align 8
  %10 = alloca i64, align 8
  %11 = alloca i32, align 4
  %12 = alloca i32, align 4
  %13 = alloca ptr, align 8
  %14 = alloca i64, align 8
  %15 = alloca i64, align 8
  %16 = alloca ptr, align 8
  %17 = alloca ptr, align 8
  %18 = alloca i32, align 4
  store ptr %0, ptr %5, align 8
  store i32 %1, ptr %6, align 4
  store ptr %2, ptr %7, align 8
  call void @llvm.lifetime.start.p0(i64 4, ptr %8) #18
  store i32 0, ptr %8, align 4, !annotation !4
  call void @llvm.lifetime.start.p0(i64 8, ptr %9) #18
  store i64 0, ptr %9, align 8, !annotation !4
  call void @llvm.lifetime.start.p0(i64 8, ptr %10) #18
  store i64 0, ptr %10, align 8, !annotation !4
  call void @llvm.lifetime.start.p0(i64 4, ptr %11) #18
  store i32 0, ptr %11, align 4, !annotation !4
  %19 = load i32, ptr @optind, align 4
  %20 = add i32 %19, 1
  store i32 %20, ptr @optind, align 4
  %21 = load ptr, ptr %7, align 8
  %22 = load i32, ptr @optind, align 4
  %23 = sext i32 %22 to i64
  %24 = getelementptr inbounds ptr, ptr %21, i64 %23
  %25 = load ptr, ptr %24, align 8
  %26 = call i64 @cvtnum(ptr noundef %25)
  store i64 %26, ptr %9, align 8
  %27 = load i64, ptr %9, align 8
  %28 = icmp slt i64 %27, 0
  br i1 %28, label %29, label %38

29:                                               ; preds = %3
  %30 = load i64, ptr %9, align 8
  %31 = load ptr, ptr %7, align 8
  %32 = load i32, ptr @optind, align 4
  %33 = sext i32 %32 to i64
  %34 = getelementptr inbounds ptr, ptr %31, i64 %33
  %35 = load ptr, ptr %34, align 8
  call void @print_cvtnum_err(i64 noundef %30, ptr noundef %35)
  %36 = load i64, ptr %9, align 8
  %37 = trunc i64 %36 to i32
  store i32 %37, ptr %4, align 4
  store i32 1, ptr %12, align 4
  br label %162

38:                                               ; preds = %3
  %39 = load i32, ptr @optind, align 4
  %40 = add i32 %39, 1
  store i32 %40, ptr @optind, align 4
  %41 = load ptr, ptr %7, align 8
  %42 = load i32, ptr @optind, align 4
  %43 = sext i32 %42 to i64
  %44 = getelementptr inbounds ptr, ptr %41, i64 %43
  %45 = load ptr, ptr %44, align 8
  %46 = call i64 @cvtnum(ptr noundef %45)
  store i64 %46, ptr %10, align 8
  %47 = load i64, ptr %10, align 8
  %48 = icmp slt i64 %47, 0
  br i1 %48, label %49, label %58

49:                                               ; preds = %38
  %50 = load i64, ptr %10, align 8
  %51 = load ptr, ptr %7, align 8
  %52 = load i32, ptr @optind, align 4
  %53 = sext i32 %52 to i64
  %54 = getelementptr inbounds ptr, ptr %51, i64 %53
  %55 = load ptr, ptr %54, align 8
  call void @print_cvtnum_err(i64 noundef %50, ptr noundef %55)
  %56 = load i64, ptr %10, align 8
  %57 = trunc i64 %56 to i32
  store i32 %57, ptr %4, align 4
  store i32 1, ptr %12, align 4
  br label %162

58:                                               ; preds = %38
  %59 = load i64, ptr %10, align 8
  %60 = icmp sgt i64 %59, 4294967295
  br i1 %60, label %61, label %63

61:                                               ; preds = %58
  %62 = call i32 (i32, ptr, ...) @__printf_chk(i32 noundef 1, ptr noundef @.str.109)
  store i32 -34, ptr %4, align 4
  store i32 1, ptr %12, align 4
  br label %162

63:                                               ; preds = %58
  %64 = load i64, ptr %10, align 8
  %65 = trunc i64 %64 to i32
  store i32 %65, ptr %11, align 4
  call void @llvm.lifetime.start.p0(i64 8, ptr %13) #18
  store ptr null, ptr %13, align 8
  call void @llvm.lifetime.start.p0(i64 8, ptr %14) #18
  %66 = load i32, ptr %11, align 4
  %67 = zext i32 %66 to i64
  store i64 %67, ptr %14, align 8
  call void @llvm.lifetime.start.p0(i64 8, ptr %15) #18
  store i64 40, ptr %15, align 8
  call void @llvm.lifetime.start.p0(i64 8, ptr %16) #18
  store ptr null, ptr %16, align 8, !annotation !4
  %68 = load i64, ptr %15, align 8
  %69 = icmp eq i64 %68, 1
  br i1 %69, label %70, label %73

70:                                               ; preds = %63
  %71 = load i64, ptr %14, align 8
  %72 = call noalias ptr @g_malloc(i64 noundef %71) #20
  store ptr %72, ptr %16, align 8
  br label %94

73:                                               ; preds = %63
  %74 = load i64, ptr %14, align 8
  %75 = call i1 @llvm.is.constant.i64(i64 %74)
  br i1 %75, label %76, label %89

76:                                               ; preds = %73
  %77 = load i64, ptr %15, align 8
  %78 = icmp eq i64 %77, 0
  br i1 %78, label %84, label %79

79:                                               ; preds = %76
  %80 = load i64, ptr %14, align 8
  %81 = load i64, ptr %15, align 8
  %82 = udiv i64 -1, %81
  %83 = icmp ule i64 %80, %82
  br i1 %83, label %84, label %89

84:                                               ; preds = %79, %76
  %85 = load i64, ptr %14, align 8
  %86 = load i64, ptr %15, align 8
  %87 = mul i64 %85, %86
  %88 = call noalias ptr @g_malloc(i64 noundef %87) #20
  store ptr %88, ptr %16, align 8
  br label %93

89:                                               ; preds = %79, %73
  %90 = load i64, ptr %14, align 8
  %91 = load i64, ptr %15, align 8
  %92 = call noalias ptr @g_malloc_n(i64 noundef %90, i64 noundef %91) #21
  store ptr %92, ptr %16, align 8
  br label %93

93:                                               ; preds = %89, %84
  br label %94

94:                                               ; preds = %93, %70
  %95 = load ptr, ptr %16, align 8
  store ptr %95, ptr %17, align 8
  call void @llvm.lifetime.end.p0(i64 8, ptr %16) #18
  call void @llvm.lifetime.end.p0(i64 8, ptr %15) #18
  call void @llvm.lifetime.end.p0(i64 8, ptr %14) #18
  %96 = load ptr, ptr %17, align 8
  store ptr %96, ptr %13, align 8
  %97 = load ptr, ptr %5, align 8
  %98 = load i64, ptr %9, align 8
  %99 = load ptr, ptr %13, align 8
  %100 = call i32 @blk_zone_report(ptr noundef %97, i64 noundef %98, ptr noundef %11, ptr noundef %99)
  store i32 %100, ptr %8, align 4
  %101 = load i32, ptr %8, align 4
  %102 = icmp slt i32 %101, 0
  br i1 %102, label %103, label %108

103:                                              ; preds = %94
  %104 = load i32, ptr %8, align 4
  %105 = sub i32 0, %104
  %106 = call ptr @strerror(i32 noundef %105) #18
  %107 = call i32 (i32, ptr, ...) @__printf_chk(i32 noundef 1, ptr noundef @.str.110, ptr noundef %106)
  br label %160

108:                                              ; preds = %94
  call void @llvm.lifetime.start.p0(i64 4, ptr %18) #18
  store i32 0, ptr %18, align 4
  br label %109

109:                                              ; preds = %156, %108
  %110 = load i32, ptr %18, align 4
  %111 = load i32, ptr %11, align 4
  %112 = icmp ult i32 %110, %111
  br i1 %112, label %114, label %113

113:                                              ; preds = %109
  store i32 2, ptr %12, align 4
  call void @llvm.lifetime.end.p0(i64 4, ptr %18) #18
  br label %159

114:                                              ; preds = %109
  %115 = load ptr, ptr %13, align 8
  %116 = load i32, ptr %18, align 4
  %117 = sext i32 %116 to i64
  %118 = getelementptr inbounds %struct.BlockZoneDescriptor, ptr %115, i64 %117
  %119 = getelementptr inbounds nuw %struct.BlockZoneDescriptor, ptr %118, i32 0, i32 0
  %120 = load i64, ptr %119, align 8
  %121 = call i64 @tosector(i64 noundef %120)
  %122 = load ptr, ptr %13, align 8
  %123 = load i32, ptr %18, align 4
  %124 = sext i32 %123 to i64
  %125 = getelementptr inbounds %struct.BlockZoneDescriptor, ptr %122, i64 %124
  %126 = getelementptr inbounds nuw %struct.BlockZoneDescriptor, ptr %125, i32 0, i32 1
  %127 = load i64, ptr %126, align 8
  %128 = call i64 @tosector(i64 noundef %127)
  %129 = load ptr, ptr %13, align 8
  %130 = load i32, ptr %18, align 4
  %131 = sext i32 %130 to i64
  %132 = getelementptr inbounds %struct.BlockZoneDescriptor, ptr %129, i64 %131
  %133 = getelementptr inbounds nuw %struct.BlockZoneDescriptor, ptr %132, i32 0, i32 2
  %134 = load i64, ptr %133, align 8
  %135 = call i64 @tosector(i64 noundef %134)
  %136 = load ptr, ptr %13, align 8
  %137 = load i32, ptr %18, align 4
  %138 = sext i32 %137 to i64
  %139 = getelementptr inbounds %struct.BlockZoneDescriptor, ptr %136, i64 %138
  %140 = getelementptr inbounds nuw %struct.BlockZoneDescriptor, ptr %139, i32 0, i32 3
  %141 = load i64, ptr %140, align 8
  %142 = call i64 @tosector(i64 noundef %141)
  %143 = load ptr, ptr %13, align 8
  %144 = load i32, ptr %18, align 4
  %145 = sext i32 %144 to i64
  %146 = getelementptr inbounds %struct.BlockZoneDescriptor, ptr %143, i64 %145
  %147 = getelementptr inbounds nuw %struct.BlockZoneDescriptor, ptr %146, i32 0, i32 5
  %148 = load i32, ptr %147, align 4
  %149 = load ptr, ptr %13, align 8
  %150 = load i32, ptr %18, align 4
  %151 = sext i32 %150 to i64
  %152 = getelementptr inbounds %struct.BlockZoneDescriptor, ptr %149, i64 %151
  %153 = getelementptr inbounds nuw %struct.BlockZoneDescriptor, ptr %152, i32 0, i32 4
  %154 = load i32, ptr %153, align 8
  %155 = call i32 (i32, ptr, ...) @__printf_chk(i32 noundef 1, ptr noundef @.str.111, i64 noundef %121, i64 noundef %128, i64 noundef %135, i64 noundef %142, i32 noundef %148, i32 noundef %154)
  br label %156

156:                                              ; preds = %114
  %157 = load i32, ptr %18, align 4
  %158 = add i32 %157, 1
  store i32 %158, ptr %18, align 4
  br label %109, !llvm.loop !26

159:                                              ; preds = %113
  br label %160

160:                                              ; preds = %159, %103
  %161 = load i32, ptr %8, align 4
  store i32 %161, ptr %4, align 4
  store i32 1, ptr %12, align 4
  call void @g_autoptr_cleanup_generic_gfree(ptr noundef %13)
  call void @llvm.lifetime.end.p0(i64 8, ptr %13) #18
  br label %162

162:                                              ; preds = %160, %61, %49, %29
  call void @llvm.lifetime.end.p0(i64 4, ptr %11) #18
  call void @llvm.lifetime.end.p0(i64 8, ptr %10) #18
  call void @llvm.lifetime.end.p0(i64 8, ptr %9) #18
  call void @llvm.lifetime.end.p0(i64 4, ptr %8) #18
  %163 = load i32, ptr %4, align 4
  ret i32 %163
}