; Function Attrs: nounwind sspstrong uwtable
define internal i32 @zone_report_f(ptr noundef %0, i32 %1, ptr noundef readonly captures(none) %2) #0 {
  %4 = alloca i64, align 8
  %5 = alloca i64, align 8
  %6 = alloca i32, align 4
  call void @llvm.lifetime.start.p0(i64 4, ptr nonnull %6) #26
  %7 = load i32, ptr @optind, align 4
  %8 = add i32 %7, 1
  store i32 %8, ptr @optind, align 4
  %9 = sext i32 %8 to i64
  %10 = getelementptr inbounds ptr, ptr %2, i64 %9
  %11 = load ptr, ptr %10, align 8
  call void @llvm.lifetime.start.p0(i64 8, ptr nonnull %5) #26
  store i64 0, ptr %5, align 8, !annotation !8
  %12 = call i32 @qemu_strtosz(ptr noundef %11, ptr noundef null, ptr noundef nonnull %5) #26
  %13 = icmp slt i32 %12, 0
  %14 = sext i32 %12 to i64
  %15 = load i64, ptr %5, align 8
  %16 = icmp slt i64 %15, 0
  %..i = select i1 %16, i64 -34, i64 %15
  %.0.i = select i1 %13, i64 %14, i64 %..i
  call void @llvm.lifetime.end.p0(i64 8, ptr nonnull %5) #26
  %17 = icmp slt i64 %.0.i, 0
  %18 = load i32, ptr @optind, align 4
  br i1 %17, label %19, label %25

19:                                               ; preds = %3
  %20 = sext i32 %18 to i64
  %21 = getelementptr inbounds ptr, ptr %2, i64 %20
  %22 = load ptr, ptr %21, align 8
  %switch.selectcmp.i = icmp eq i64 %.0.i, -34
  %switch.select.i = select i1 %switch.selectcmp.i, ptr @.str.31, ptr @.str.32
  %switch.selectcmp3.i = icmp eq i64 %.0.i, -22
  %switch.select4.i = select i1 %switch.selectcmp3.i, ptr @.str.30, ptr %switch.select.i
  %23 = call i32 (i32, ptr, ...) @__printf_chk(i32 noundef 1, ptr noundef nonnull %switch.select4.i, ptr noundef %22) #26
  %24 = trunc nsw i64 %.0.i to i32
  br label %78

25:                                               ; preds = %3
  %26 = add i32 %18, 1
  store i32 %26, ptr @optind, align 4
  %27 = sext i32 %26 to i64
  %28 = getelementptr inbounds ptr, ptr %2, i64 %27
  %29 = load ptr, ptr %28, align 8
  call void @llvm.lifetime.start.p0(i64 8, ptr nonnull %4) #26
  store i64 0, ptr %4, align 8, !annotation !8
  %30 = call i32 @qemu_strtosz(ptr noundef %29, ptr noundef null, ptr noundef nonnull %4) #26
  %31 = icmp slt i32 %30, 0
  %32 = sext i32 %30 to i64
  %33 = load i64, ptr %4, align 8
  %34 = icmp slt i64 %33, 0
  %..i43 = select i1 %34, i64 -34, i64 %33
  %.0.i44 = select i1 %31, i64 %32, i64 %..i43
  call void @llvm.lifetime.end.p0(i64 8, ptr nonnull %4) #26
  %35 = icmp slt i64 %.0.i44, 0
  br i1 %35, label %36, label %43

36:                                               ; preds = %25
  %37 = load i32, ptr @optind, align 4
  %38 = sext i32 %37 to i64
  %39 = getelementptr inbounds ptr, ptr %2, i64 %38
  %40 = load ptr, ptr %39, align 8
  %switch.selectcmp.i45 = icmp eq i64 %.0.i44, -34
  %switch.select.i46 = select i1 %switch.selectcmp.i45, ptr @.str.31, ptr @.str.32
  %switch.selectcmp3.i47 = icmp eq i64 %.0.i44, -22
  %switch.select4.i48 = select i1 %switch.selectcmp3.i47, ptr @.str.30, ptr %switch.select.i46
  %41 = call i32 (i32, ptr, ...) @__printf_chk(i32 noundef 1, ptr noundef nonnull %switch.select4.i48, ptr noundef %40) #26
  %42 = trunc nsw i64 %.0.i44 to i32
  br label %78

43:                                               ; preds = %25
  %44 = icmp samesign ugt i64 %.0.i44, 4294967295
  br i1 %44, label %45, label %47

45:                                               ; preds = %43
  %46 = call i32 (i32, ptr, ...) @__printf_chk(i32 noundef 1, ptr noundef nonnull @.str.109) #26
  br label %78

47:                                               ; preds = %43
  %48 = trunc nuw i64 %.0.i44 to i32
  store i32 %48, ptr %6, align 4
  %49 = call noalias ptr @g_malloc_n(i64 noundef %.0.i44, i64 noundef 40) #30
  %50 = call i32 @blk_zone_report(ptr noundef %0, i64 noundef %.0.i, ptr noundef nonnull %6, ptr noundef %49) #26
  %51 = icmp slt i32 %50, 0
  br i1 %51, label %53, label %.preheader

.preheader:                                       ; preds = %47
  %52 = load i32, ptr %6, align 4
  %.not = icmp eq i32 %52, 0
  br i1 %.not, label %.loopexit, label %.lr.ph

53:                                               ; preds = %47
  %54 = sub i32 0, %50
  %55 = call ptr @strerror(i32 noundef %54) #26
  %56 = call i32 (i32, ptr, ...) @__printf_chk(i32 noundef 1, ptr noundef nonnull @.str.110, ptr noundef %55) #26
  br label %.loopexit

.lr.ph:                                           ; preds = %.preheader, %.lr.ph
  %.053 = phi i32 [ %75, %.lr.ph ], [ 0, %.preheader ]
  %57 = sext i32 %.053 to i64
  %58 = getelementptr inbounds %struct.BlockZoneDescriptor, ptr %49, i64 %57
  %59 = load i64, ptr %58, align 8
  %60 = ashr i64 %59, 9
  %61 = getelementptr inbounds %struct.BlockZoneDescriptor, ptr %49, i64 %57, i32 1
  %62 = load i64, ptr %61, align 8
  %63 = ashr i64 %62, 9
  %64 = getelementptr inbounds %struct.BlockZoneDescriptor, ptr %49, i64 %57, i32 2
  %65 = load i64, ptr %64, align 8
  %66 = ashr i64 %65, 9
  %67 = getelementptr inbounds %struct.BlockZoneDescriptor, ptr %49, i64 %57, i32 3
  %68 = load i64, ptr %67, align 8
  %69 = ashr i64 %68, 9
  %70 = getelementptr inbounds nuw i8, ptr %58, i64 36
  %71 = load i32, ptr %70, align 4
  %72 = getelementptr inbounds nuw i8, ptr %58, i64 32
  %73 = load i32, ptr %72, align 8
  %74 = call i32 (i32, ptr, ...) @__printf_chk(i32 noundef 1, ptr noundef nonnull @.str.111, i64 noundef %60, i64 noundef %63, i64 noundef %66, i64 noundef %69, i32 noundef %71, i32 noundef %73) #26
  %75 = add nuw i32 %.053, 1
  %76 = load i32, ptr %6, align 4
  %77 = icmp ult i32 %75, %76
  br i1 %77, label %.lr.ph, label %.loopexit, !llvm.loop !26

.loopexit:                                        ; preds = %.lr.ph, %.preheader, %53
  call void @g_free(ptr noundef %49) #26
  br label %78

78:                                               ; preds = %.loopexit, %45, %36, %19
  %.037 = phi i32 [ %24, %19 ], [ %42, %36 ], [ -34, %45 ], [ %50, %.loopexit ]
  call void @llvm.lifetime.end.p0(i64 4, ptr nonnull %6) #26
  ret i32 %.037
}